target datalayout = "e-m:e-p270:32:32-p271:32:32-p272:64:64-i64:64-i128:128-f80:128-n8:16:32:64-S128"
target triple = "x86_64-pc-linux-gnu"

%struct._zend_refcounted_h = type { i32, %union.anon }
%union.anon = type { i32 }
%struct._zend_string = type { %struct._zend_refcounted_h, i64, i64, [1 x i8] }

@.str.7 = private unnamed_addr constant [3 x i8] c"rb\00", align 1
@.str.13 = private unnamed_addr constant [6 x i8] c".phar\00", align 1
@.str.14 = private unnamed_addr constant [37 x i8] c"unable to open phar for reading \22%s\22\00", align 1

; Function Attrs: nounwind uwtable
define hidden i32 @phar_open_from_filename(ptr noundef %0, i64 noundef %1, ptr noundef %2, i64 noundef %3, i32 noundef %4, ptr noundef %5, ptr noundef %6) #0 {
  %8 = alloca ptr, align 8
  %9 = alloca ptr, align 8
  %10 = alloca i32, align 4
  %11 = alloca i32, align 4
  %12 = alloca ptr, align 8
  %13 = alloca i8, align 1
  %14 = alloca ptr, align 8
  %15 = alloca i8, align 1
  %16 = alloca i32, align 4
  %17 = alloca ptr, align 8
  %18 = alloca i64, align 8
  %19 = alloca ptr, align 8
  %20 = alloca i64, align 8
  %21 = alloca i32, align 4
  %22 = alloca ptr, align 8
  %23 = alloca ptr, align 8
  %24 = alloca ptr, align 8
  %25 = alloca ptr, align 8
  %26 = alloca i32, align 4
  %27 = alloca i32, align 4
  store ptr %0, ptr %17, align 8
  store i64 %1, ptr %18, align 8
  store ptr %2, ptr %19, align 8
  store i64 %3, ptr %20, align 8
  store i32 %4, ptr %21, align 4
  store ptr %5, ptr %22, align 8
  store ptr %6, ptr %23, align 8
  store i32 0, ptr %27, align 4
  %28 = load ptr, ptr %23, align 8
  %29 = icmp ne ptr %28, null
  br i1 %29, label %30, label %32

30:                                               ; preds = %7
  %31 = load ptr, ptr %23, align 8
  store ptr null, ptr %31, align 8
  br label %32

32:                                               ; preds = %30, %7
  %33 = load ptr, ptr %17, align 8
  %34 = call ptr @strstr(ptr noundef %33, ptr noundef @.str.13) #14
  %35 = icmp ne ptr %34, null
  br i1 %35, label %37, label %36

36:                                               ; preds = %32
  store i32 1, ptr %27, align 4
  br label %37

37:                                               ; preds = %36, %32
  %38 = load ptr, ptr %17, align 8
  %39 = load i64, ptr %18, align 8
  %40 = load ptr, ptr %19, align 8
  %41 = load i64, ptr %20, align 8
  %42 = load i32, ptr %27, align 4
  %43 = icmp ne i32 %42, 0
  %44 = load i32, ptr %21, align 4
  %45 = load ptr, ptr %22, align 8
  %46 = load ptr, ptr %23, align 8
  %47 = call i32 @phar_open_parsed_phar(ptr noundef %38, i64 noundef %39, ptr noundef %40, i64 noundef %41, i1 noundef zeroext %43, i32 noundef %44, ptr noundef %45, ptr noundef %46)
  %48 = icmp eq i32 %47, 0
  br i1 %48, label %49, label %50

49:                                               ; preds = %37
  store i32 0, ptr %16, align 4
  br label %166

50:                                               ; preds = %37
  %51 = load ptr, ptr %23, align 8
  %52 = icmp ne ptr %51, null
  br i1 %52, label %53, label %58

53:                                               ; preds = %50
  %54 = load ptr, ptr %23, align 8
  %55 = load ptr, ptr %54, align 8
  %56 = icmp ne ptr %55, null
  br i1 %56, label %57, label %58

57:                                               ; preds = %53
  store i32 -1, ptr %16, align 4
  br label %166

58:                                               ; preds = %53, %50
  br label %59

59:                                               ; preds = %58
  %60 = load ptr, ptr %17, align 8
  %61 = call i32 @php_check_open_basedir(ptr noundef %60)
  %62 = icmp ne i32 %61, 0
  br i1 %62, label %63, label %64

63:                                               ; preds = %59
  store i32 -1, ptr %16, align 4
  br label %166

64:                                               ; preds = %59
  %65 = load ptr, ptr %17, align 8
  %66 = call ptr @_php_stream_open_wrapper_ex(ptr noundef %65, ptr noundef @.str.7, i32 noundef 18, ptr noundef %25, ptr noundef null)
  store ptr %66, ptr %24, align 8
  %67 = load ptr, ptr %24, align 8
  %68 = icmp ne ptr %67, null
  br i1 %68, label %113, label %69

69:                                               ; preds = %64
  %70 = load i32, ptr %21, align 4
  %71 = and i32 %70, 8
  %72 = icmp ne i32 %71, 0
  br i1 %72, label %73, label %81

73:                                               ; preds = %69
  %74 = load ptr, ptr %23, align 8
  %75 = icmp ne ptr %74, null
  br i1 %75, label %76, label %80

76:                                               ; preds = %73
  %77 = load ptr, ptr %23, align 8
  %78 = load ptr, ptr %17, align 8
  %79 = call i64 (ptr, i64, ptr, ...) @zend_spprintf(ptr noundef %77, i64 noundef 0, ptr noundef @.str.14, ptr noundef %78)
  br label %80

80:                                               ; preds = %76, %73
  br label %81

81:                                               ; preds = %80, %69
  %82 = load ptr, ptr %25, align 8
  %83 = icmp ne ptr %82, null
  br i1 %83, label %84, label %112

84:                                               ; preds = %81
  %85 = load ptr, ptr %25, align 8
  store ptr %85, ptr %12, align 8
  store i8 0, ptr %13, align 1
  %86 = load ptr, ptr %12, align 8
  %87 = getelementptr inbounds %struct._zend_refcounted_h, ptr %86, i32 0, i32 1
  %88 = load i32, ptr %87, align 4
  store i32 %88, ptr %11, align 4
  %89 = load i32, ptr %11, align 4
  %90 = and i32 %89, 1008
  %91 = and i32 %90, 64
  %92 = icmp ne i32 %91, 0
  br i1 %92, label %111, label %93

93:                                               ; preds = %84
  %94 = load ptr, ptr %12, align 8
  store ptr %94, ptr %9, align 8
  %95 = load ptr, ptr %9, align 8
  %96 = load i32, ptr %95, align 4
  %97 = icmp ugt i32 %96, 0
  call void @llvm.assume(i1 %97)
  %98 = load ptr, ptr %9, align 8
  %99 = load i32, ptr %98, align 4
  %100 = add i32 %99, -1
  store i32 %100, ptr %98, align 4
  %101 = icmp eq i32 %100, 0
  br i1 %101, label %102, label %110

102:                                              ; preds = %93
  %103 = load i8, ptr %13, align 1
  %104 = trunc i8 %103 to i1
  br i1 %104, label %105, label %107

105:                                              ; preds = %102
  %106 = load ptr, ptr %12, align 8
  call void @free(ptr noundef %106) #13
  br label %109

107:                                              ; preds = %102
  %108 = load ptr, ptr %12, align 8
  call void @_efree(ptr noundef %108) #13
  br label %109

109:                                              ; preds = %107, %105
  br label %110

110:                                              ; preds = %109, %93
  br label %111

111:                                              ; preds = %110, %84
  br label %112

112:                                              ; preds = %111, %81
  store i32 -1, ptr %16, align 4
  br label %166

113:                                              ; preds = %64
  %114 = load ptr, ptr %25, align 8
  %115 = icmp ne ptr %114, null
  br i1 %115, label %116, label %123

116:                                              ; preds = %113
  %117 = load ptr, ptr %25, align 8
  %118 = getelementptr inbounds %struct._zend_string, ptr %117, i32 0, i32 3
  %119 = getelementptr inbounds [1 x i8], ptr %118, i64 0, i64 0
  store ptr %119, ptr %17, align 8
  %120 = load ptr, ptr %25, align 8
  %121 = getelementptr inbounds %struct._zend_string, ptr %120, i32 0, i32 2
  %122 = load i64, ptr %121, align 8
  store i64 %122, ptr %18, align 8
  br label %123

123:                                              ; preds = %116, %113
  %124 = load ptr, ptr %24, align 8
  %125 = load ptr, ptr %17, align 8
  %126 = load i64, ptr %18, align 8
  %127 = load ptr, ptr %19, align 8
  %128 = load i64, ptr %20, align 8
  %129 = load i32, ptr %21, align 4
  %130 = load ptr, ptr %22, align 8
  %131 = load i32, ptr %27, align 4
  %132 = load ptr, ptr %23, align 8
  %133 = call i32 @phar_open_from_fp(ptr noundef %124, ptr noundef %125, i64 noundef %126, ptr noundef %127, i64 noundef %128, i32 noundef %129, ptr noundef %130, i32 noundef %131, ptr noundef %132)
  store i32 %133, ptr %26, align 4
  %134 = load ptr, ptr %25, align 8
  %135 = icmp ne ptr %134, null
  br i1 %135, label %136, label %164

136:                                              ; preds = %123
  %137 = load ptr, ptr %25, align 8
  store ptr %137, ptr %14, align 8
  store i8 0, ptr %15, align 1
  %138 = load ptr, ptr %14, align 8
  %139 = getelementptr inbounds %struct._zend_refcounted_h, ptr %138, i32 0, i32 1
  %140 = load i32, ptr %139, align 4
  store i32 %140, ptr %10, align 4
  %141 = load i32, ptr %10, align 4
  %142 = and i32 %141, 1008
  %143 = and i32 %142, 64
  %144 = icmp ne i32 %143, 0
  br i1 %144, label %163, label %145

145:                                              ; preds = %136
  %146 = load ptr, ptr %14, align 8
  store ptr %146, ptr %8, align 8
  %147 = load ptr, ptr %8, align 8
  %148 = load i32, ptr %147, align 4
  %149 = icmp ugt i32 %148, 0
  call void @llvm.assume(i1 %149)
  %150 = load ptr, ptr %8, align 8
  %151 = load i32, ptr %150, align 4
  %152 = add i32 %151, -1
  store i32 %152, ptr %150, align 4
  %153 = icmp eq i32 %152, 0
  br i1 %153, label %154, label %162

154:                                              ; preds = %145
  %155 = load i8, ptr %15, align 1
  %156 = trunc i8 %155 to i1
  br i1 %156, label %157, label %159

157:                                              ; preds = %154
  %158 = load ptr, ptr %14, align 8
  call void @free(ptr noundef %158) #13
  br label %161

159:                                              ; preds = %154
  %160 = load ptr, ptr %14, align 8
  call void @_efree(ptr noundef %160) #13
  br label %161

161:                                              ; preds = %159, %157
  br label %162

162:                                              ; preds = %161, %145
  br label %163

163:                                              ; preds = %162, %136
  br label %164

164:                                              ; preds = %163, %123
  %165 = load i32, ptr %26, align 4
  store i32 %165, ptr %16, align 4
  br label %166

166:                                              ; preds = %164, %112, %63, %57, %49
  %167 = load i32, ptr %16, align 4
  ret i32 %167
}