; Function Attrs: nounwind uwtable
define hidden i32 @phar_open_from_filename(ptr noundef %0, i64 noundef %1, ptr noundef %2, i64 noundef %3, i32 noundef %4, ptr noundef %5, ptr noundef %6) local_unnamed_addr #0 {
  %8 = alloca ptr, align 8
  %9 = icmp ne ptr %6, null
  br i1 %9, label %10, label %11

10:                                               ; preds = %7
  store ptr null, ptr %6, align 8
  br label %11

11:                                               ; preds = %10, %7
  %12 = tail call ptr @strstr(ptr noundef nonnull dereferenceable(1) %0, ptr noundef nonnull dereferenceable(1) @.str.13) #24
  %.not = icmp eq ptr %12, null
  %spec.select = zext i1 %.not to i32
  %13 = tail call i32 @phar_open_parsed_phar(ptr noundef %0, i64 noundef %1, ptr noundef %2, i64 noundef %3, i1 noundef zeroext %.not, i32 noundef %4, ptr noundef %5, ptr noundef %6), !range !5
  %14 = icmp eq i32 %13, 0
  br i1 %14, label %56, label %15

15:                                               ; preds = %11
  br i1 %9, label %16, label %18

16:                                               ; preds = %15
  %17 = load ptr, ptr %6, align 8
  %.not55 = icmp eq ptr %17, null
  br i1 %.not55, label %18, label %56

18:                                               ; preds = %15, %16
  %19 = tail call i32 @php_check_open_basedir(ptr noundef %0) #23
  %.not56 = icmp eq i32 %19, 0
  br i1 %.not56, label %20, label %56

20:                                               ; preds = %18
  %21 = call ptr @_php_stream_open_wrapper_ex(ptr noundef %0, ptr noundef nonnull @.str.7, i32 noundef 18, ptr noundef nonnull %8, ptr noundef null) #23
  %.not57 = icmp eq ptr %21, null
  br i1 %.not57, label %22, label %38

22:                                               ; preds = %20
  %23 = and i32 %4, 8
  %24 = icmp ne i32 %23, 0
  %or.cond = and i1 %24, %9
  br i1 %or.cond, label %25, label %27

25:                                               ; preds = %22
  %26 = call i64 (ptr, i64, ptr, ...) @zend_spprintf(ptr noundef nonnull %6, i64 noundef 0, ptr noundef nonnull @.str.14, ptr noundef %0) #23
  br label %27

27:                                               ; preds = %25, %22
  %28 = load ptr, ptr %8, align 8
  %.not58 = icmp eq ptr %28, null
  br i1 %.not58, label %56, label %29

29:                                               ; preds = %27
  %30 = getelementptr inbounds i8, ptr %28, i64 4
  %31 = load i32, ptr %30, align 4
  %32 = and i32 %31, 64
  %.not59 = icmp eq i32 %32, 0
  br i1 %.not59, label %33, label %56

33:                                               ; preds = %29
  %34 = load i32, ptr %28, align 4
  %35 = icmp ne i32 %34, 0
  call void @llvm.assume(i1 %35)
  %36 = add i32 %34, -1
  store i32 %36, ptr %28, align 4
  %37 = icmp eq i32 %36, 0
  br i1 %37, label %.sink.split, label %56

38:                                               ; preds = %20
  %39 = load ptr, ptr %8, align 8
  %.not60 = icmp eq ptr %39, null
  br i1 %.not60, label %44, label %40

40:                                               ; preds = %38
  %41 = getelementptr inbounds i8, ptr %39, i64 24
  %42 = getelementptr inbounds i8, ptr %39, i64 16
  %43 = load i64, ptr %42, align 8
  br label %44

44:                                               ; preds = %40, %38
  %.049 = phi i64 [ %43, %40 ], [ %1, %38 ]
  %.048 = phi ptr [ %41, %40 ], [ %0, %38 ]
  %45 = call fastcc i32 @phar_open_from_fp(ptr noundef nonnull %21, ptr noundef %.048, i64 noundef %.049, ptr noundef %2, i64 noundef %3, ptr noundef %5, i32 noundef %spec.select, ptr noundef %6)
  %46 = load ptr, ptr %8, align 8
  %.not61 = icmp eq ptr %46, null
  br i1 %.not61, label %56, label %47

47:                                               ; preds = %44
  %48 = getelementptr inbounds i8, ptr %46, i64 4
  %49 = load i32, ptr %48, align 4
  %50 = and i32 %49, 64
  %.not62 = icmp eq i32 %50, 0
  br i1 %.not62, label %51, label %56

51:                                               ; preds = %47
  %52 = load i32, ptr %46, align 4
  %53 = icmp ne i32 %52, 0
  call void @llvm.assume(i1 %53)
  %54 = add i32 %52, -1
  store i32 %54, ptr %46, align 4
  %55 = icmp eq i32 %54, 0
  br i1 %55, label %.sink.split, label %56

.sink.split:                                      ; preds = %51, %33
  %.sink = phi ptr [ %28, %33 ], [ %46, %51 ]
  %.047.ph = phi i32 [ -1, %33 ], [ %45, %51 ]
  call void @_efree(ptr noundef nonnull %.sink) #23
  br label %56

56:                                               ; preds = %.sink.split, %44, %51, %47, %27, %33, %29, %18, %16, %11
  %.047 = phi i32 [ 0, %11 ], [ -1, %16 ], [ -1, %18 ], [ -1, %29 ], [ -1, %33 ], [ -1, %27 ], [ %45, %47 ], [ %45, %51 ], [ %45, %44 ], [ %.047.ph, %.sink.split ]
  ret i32 %.047
}